target datalayout = "e-m:e-p270:32:32-p271:32:32-p272:64:64-i64:64-i128:128-f80:128-n8:16:32:64-S128"
target triple = "x86_64-pc-linux-gnu"

%struct.snooprec_hdr = type { i32, i32, i32, i32, i32, i32 }
%struct.wtap_rec = type { i32, i32, i32, %struct.nstime_t, i32, %struct.nstime_t, i8, %union.anon, ptr, i8, %struct.Buffer, %struct.Buffer }
%struct.nstime_t = type { i64, i32 }
%union.anon = type { %struct.wtap_packet_header }
%struct.wtap_packet_header = type { i32, i32, i32, i32, %union.wtap_pseudo_header }
%union.wtap_pseudo_header = type { %struct.erf_mc_phdr }
%struct.erf_mc_phdr = type { %struct.erf_phdr, [16 x %struct.erf_ehdr], %union.anon.1 }
%struct.erf_phdr = type { i64, i8, i8, i16, i16, i16 }
%struct.erf_ehdr = type { i64 }
%union.anon.1 = type { i32 }
%struct.Buffer = type { ptr, i64, i64, i64 }
%struct.atm_phdr = type { i32, i8, i8, i8, i16, i16, i8, i16, i16, i16, i16, i32 }
%struct.snoop_atm_hdr = type { i8, i8, i16 }
%struct.wtap_dumper = type { ptr, i32, i32, i32, i32, i8, i64, ptr, ptr, ptr, ptr, ptr, ptr, ptr, ptr, ptr, ptr, ptr, ptr, ptr, i32, i32, i32 }

@snoop_dump.zeroes = internal constant [4 x i8] zeroinitializer, align 1

; Function Attrs: null_pointer_is_valid sspstrong uwtable
define internal zeroext i1 @snoop_dump(ptr noundef %0, ptr noundef %1, ptr noundef %2, ptr noundef %3, ptr noundef %4) #0 {
  %6 = alloca i1, align 1
  %7 = alloca ptr, align 8
  %8 = alloca ptr, align 8
  %9 = alloca ptr, align 8
  %10 = alloca ptr, align 8
  %11 = alloca ptr, align 8
  %12 = alloca ptr, align 8
  %13 = alloca %struct.snooprec_hdr, align 4
  %14 = alloca i32, align 4
  %15 = alloca i32, align 4
  %16 = alloca %struct.snoop_atm_hdr, align 2
  %17 = alloca i32, align 4
  %18 = alloca i32, align 4
  %19 = alloca i32, align 4
  %20 = alloca i32, align 4
  %21 = alloca i32, align 4
  %22 = alloca i32, align 4
  %23 = alloca i32, align 4
  %24 = alloca i32, align 4
  %25 = alloca i32, align 4
  %26 = alloca i32, align 4
  %27 = alloca i32, align 4
  %28 = alloca i32, align 4
  %29 = alloca i32, align 4
  %30 = alloca i32, align 4
  %31 = alloca i32, align 4
  %32 = alloca i32, align 4
  %33 = alloca i32, align 4
  store ptr %0, ptr %7, align 8
  store ptr %1, ptr %8, align 8
  store ptr %2, ptr %9, align 8
  store ptr %3, ptr %10, align 8
  store ptr %4, ptr %11, align 8
  call void @llvm.lifetime.start.p0(i64 8, ptr %12) #12
  %34 = load ptr, ptr %8, align 8
  %35 = getelementptr inbounds nuw %struct.wtap_rec, ptr %34, i32 0, i32 7
  %36 = getelementptr inbounds nuw %struct.wtap_packet_header, ptr %35, i32 0, i32 4
  store ptr %36, ptr %12, align 8
  call void @llvm.lifetime.start.p0(i64 24, ptr %13) #12
  call void @llvm.lifetime.start.p0(i64 4, ptr %14) #12
  call void @llvm.lifetime.start.p0(i64 4, ptr %15) #12
  call void @llvm.lifetime.start.p0(i64 4, ptr %16) #12
  call void @llvm.lifetime.start.p0(i64 4, ptr %17) #12
  %37 = load ptr, ptr %8, align 8
  %38 = getelementptr inbounds nuw %struct.wtap_rec, ptr %37, i32 0, i32 0
  %39 = load i32, ptr %38, align 8
  %40 = icmp ne i32 %39, 0
  br i1 %40, label %41, label %43

41:                                               ; preds = %5
  %42 = load ptr, ptr %10, align 8
  store i32 -24, ptr %42, align 4
  store i1 false, ptr %6, align 1
  store i32 1, ptr %18, align 4
  br label %335

43:                                               ; preds = %5
  %44 = load ptr, ptr %7, align 8
  %45 = getelementptr inbounds nuw %struct.wtap_dumper, ptr %44, i32 0, i32 3
  %46 = load i32, ptr %45, align 8
  %47 = load ptr, ptr %8, align 8
  %48 = getelementptr inbounds nuw %struct.wtap_rec, ptr %47, i32 0, i32 7
  %49 = getelementptr inbounds nuw %struct.wtap_packet_header, ptr %48, i32 0, i32 2
  %50 = load i32, ptr %49, align 8
  %51 = icmp ne i32 %46, %50
  br i1 %51, label %52, label %54

52:                                               ; preds = %43
  %53 = load ptr, ptr %10, align 8
  store i32 -9, ptr %53, align 4
  store i1 false, ptr %6, align 1
  store i32 1, ptr %18, align 4
  br label %335

54:                                               ; preds = %43
  %55 = load ptr, ptr %7, align 8
  %56 = getelementptr inbounds nuw %struct.wtap_dumper, ptr %55, i32 0, i32 3
  %57 = load i32, ptr %56, align 8
  %58 = icmp eq i32 %57, 13
  br i1 %58, label %59, label %60

59:                                               ; preds = %54
  store i32 4, ptr %17, align 4
  br label %61

60:                                               ; preds = %54
  store i32 0, ptr %17, align 4
  br label %61

61:                                               ; preds = %60, %59
  %62 = load ptr, ptr %8, align 8
  %63 = getelementptr inbounds nuw %struct.wtap_rec, ptr %62, i32 0, i32 7
  %64 = getelementptr inbounds nuw %struct.wtap_packet_header, ptr %63, i32 0, i32 0
  %65 = load i32, ptr %64, align 8
  %66 = add i32 24, %65
  %67 = load i32, ptr %17, align 4
  %68 = add i32 %66, %67
  store i32 %68, ptr %14, align 4
  %69 = load i32, ptr %14, align 4
  %70 = add i32 %69, 3
  %71 = and i32 %70, -4
  %72 = load i32, ptr %14, align 4
  %73 = sub i32 %71, %72
  store i32 %73, ptr %15, align 4
  %74 = load i32, ptr %15, align 4
  %75 = load i32, ptr %14, align 4
  %76 = add i32 %75, %74
  store i32 %76, ptr %14, align 4
  %77 = load ptr, ptr %8, align 8
  %78 = getelementptr inbounds nuw %struct.wtap_rec, ptr %77, i32 0, i32 7
  %79 = getelementptr inbounds nuw %struct.wtap_packet_header, ptr %78, i32 0, i32 0
  %80 = load i32, ptr %79, align 8
  %81 = load i32, ptr %17, align 4
  %82 = add i32 %80, %81
  %83 = icmp ugt i32 %82, 262144
  br i1 %83, label %84, label %86

84:                                               ; preds = %61
  %85 = load ptr, ptr %10, align 8
  store i32 -22, ptr %85, align 4
  store i1 false, ptr %6, align 1
  store i32 1, ptr %18, align 4
  br label %335

86:                                               ; preds = %61
  call void @llvm.lifetime.start.p0(i64 4, ptr %19) #12
  call void @llvm.lifetime.start.p0(i64 4, ptr %20) #12
  %87 = load ptr, ptr %8, align 8
  %88 = getelementptr inbounds nuw %struct.wtap_rec, ptr %87, i32 0, i32 7
  %89 = getelementptr inbounds nuw %struct.wtap_packet_header, ptr %88, i32 0, i32 1
  %90 = load i32, ptr %89, align 4
  %91 = load i32, ptr %17, align 4
  %92 = add i32 %90, %91
  store i32 %92, ptr %20, align 4
  %93 = load i32, ptr %20, align 4
  %94 = call i1 @llvm.is.constant.i32(i32 %93)
  br i1 %94, label %95, label %111

95:                                               ; preds = %86
  %96 = load i32, ptr %20, align 4
  %97 = and i32 %96, 255
  %98 = shl i32 %97, 24
  %99 = load i32, ptr %20, align 4
  %100 = and i32 %99, 65280
  %101 = shl i32 %100, 8
  %102 = or i32 %98, %101
  %103 = load i32, ptr %20, align 4
  %104 = and i32 %103, 16711680
  %105 = lshr i32 %104, 8
  %106 = or i32 %102, %105
  %107 = load i32, ptr %20, align 4
  %108 = and i32 %107, -16777216
  %109 = lshr i32 %108, 24
  %110 = or i32 %106, %109
  store i32 %110, ptr %19, align 4
  br label %114

111:                                              ; preds = %86
  %112 = load i32, ptr %20, align 4
  %113 = call i32 asm "bswapl $0", "=r,0,~{dirflag},~{fpsr},~{flags}"(i32 %112) #14, !srcloc !21
  store i32 %113, ptr %19, align 4
  br label %114

114:                                              ; preds = %111, %95
  %115 = load i32, ptr %19, align 4
  store i32 %115, ptr %21, align 4
  call void @llvm.lifetime.end.p0(i64 4, ptr %20) #12
  call void @llvm.lifetime.end.p0(i64 4, ptr %19) #12
  %116 = load i32, ptr %21, align 4
  %117 = getelementptr inbounds nuw %struct.snooprec_hdr, ptr %13, i32 0, i32 0
  store i32 %116, ptr %117, align 4
  call void @llvm.lifetime.start.p0(i64 4, ptr %22) #12
  call void @llvm.lifetime.start.p0(i64 4, ptr %23) #12
  %118 = load ptr, ptr %8, align 8
  %119 = getelementptr inbounds nuw %struct.wtap_rec, ptr %118, i32 0, i32 7
  %120 = getelementptr inbounds nuw %struct.wtap_packet_header, ptr %119, i32 0, i32 0
  %121 = load i32, ptr %120, align 8
  %122 = load i32, ptr %17, align 4
  %123 = add i32 %121, %122
  store i32 %123, ptr %23, align 4
  %124 = load i32, ptr %23, align 4
  %125 = call i1 @llvm.is.constant.i32(i32 %124)
  br i1 %125, label %126, label %142

126:                                              ; preds = %114
  %127 = load i32, ptr %23, align 4
  %128 = and i32 %127, 255
  %129 = shl i32 %128, 24
  %130 = load i32, ptr %23, align 4
  %131 = and i32 %130, 65280
  %132 = shl i32 %131, 8
  %133 = or i32 %129, %132
  %134 = load i32, ptr %23, align 4
  %135 = and i32 %134, 16711680
  %136 = lshr i32 %135, 8
  %137 = or i32 %133, %136
  %138 = load i32, ptr %23, align 4
  %139 = and i32 %138, -16777216
  %140 = lshr i32 %139, 24
  %141 = or i32 %137, %140
  store i32 %141, ptr %22, align 4
  br label %145

142:                                              ; preds = %114
  %143 = load i32, ptr %23, align 4
  %144 = call i32 asm "bswapl $0", "=r,0,~{dirflag},~{fpsr},~{flags}"(i32 %143) #14, !srcloc !22
  store i32 %144, ptr %22, align 4
  br label %145

145:                                              ; preds = %142, %126
  %146 = load i32, ptr %22, align 4
  store i32 %146, ptr %24, align 4
  call void @llvm.lifetime.end.p0(i64 4, ptr %23) #12
  call void @llvm.lifetime.end.p0(i64 4, ptr %22) #12
  %147 = load i32, ptr %24, align 4
  %148 = getelementptr inbounds nuw %struct.snooprec_hdr, ptr %13, i32 0, i32 1
  store i32 %147, ptr %148, align 4
  call void @llvm.lifetime.start.p0(i64 4, ptr %25) #12
  call void @llvm.lifetime.start.p0(i64 4, ptr %26) #12
  %149 = load i32, ptr %14, align 4
  store i32 %149, ptr %26, align 4
  %150 = load i32, ptr %26, align 4
  %151 = call i1 @llvm.is.constant.i32(i32 %150)
  br i1 %151, label %152, label %168

152:                                              ; preds = %145
  %153 = load i32, ptr %26, align 4
  %154 = and i32 %153, 255
  %155 = shl i32 %154, 24
  %156 = load i32, ptr %26, align 4
  %157 = and i32 %156, 65280
  %158 = shl i32 %157, 8
  %159 = or i32 %155, %158
  %160 = load i32, ptr %26, align 4
  %161 = and i32 %160, 16711680
  %162 = lshr i32 %161, 8
  %163 = or i32 %159, %162
  %164 = load i32, ptr %26, align 4
  %165 = and i32 %164, -16777216
  %166 = lshr i32 %165, 24
  %167 = or i32 %163, %166
  store i32 %167, ptr %25, align 4
  br label %171

168:                                              ; preds = %145
  %169 = load i32, ptr %26, align 4
  %170 = call i32 asm "bswapl $0", "=r,0,~{dirflag},~{fpsr},~{flags}"(i32 %169) #14, !srcloc !23
  store i32 %170, ptr %25, align 4
  br label %171

171:                                              ; preds = %168, %152
  %172 = load i32, ptr %25, align 4
  store i32 %172, ptr %27, align 4
  call void @llvm.lifetime.end.p0(i64 4, ptr %26) #12
  call void @llvm.lifetime.end.p0(i64 4, ptr %25) #12
  %173 = load i32, ptr %27, align 4
  %174 = getelementptr inbounds nuw %struct.snooprec_hdr, ptr %13, i32 0, i32 2
  store i32 %173, ptr %174, align 4
  %175 = getelementptr inbounds nuw %struct.snooprec_hdr, ptr %13, i32 0, i32 3
  store i32 0, ptr %175, align 4
  call void @llvm.lifetime.start.p0(i64 4, ptr %28) #12
  call void @llvm.lifetime.start.p0(i64 4, ptr %29) #12
  %176 = load ptr, ptr %8, align 8
  %177 = getelementptr inbounds nuw %struct.wtap_rec, ptr %176, i32 0, i32 3
  %178 = getelementptr inbounds nuw %struct.nstime_t, ptr %177, i32 0, i32 0
  %179 = load i64, ptr %178, align 8
  %180 = trunc i64 %179 to i32
  store i32 %180, ptr %29, align 4
  %181 = load i32, ptr %29, align 4
  %182 = call i1 @llvm.is.constant.i32(i32 %181)
  br i1 %182, label %183, label %199

183:                                              ; preds = %171
  %184 = load i32, ptr %29, align 4
  %185 = and i32 %184, 255
  %186 = shl i32 %185, 24
  %187 = load i32, ptr %29, align 4
  %188 = and i32 %187, 65280
  %189 = shl i32 %188, 8
  %190 = or i32 %186, %189
  %191 = load i32, ptr %29, align 4
  %192 = and i32 %191, 16711680
  %193 = lshr i32 %192, 8
  %194 = or i32 %190, %193
  %195 = load i32, ptr %29, align 4
  %196 = and i32 %195, -16777216
  %197 = lshr i32 %196, 24
  %198 = or i32 %194, %197
  store i32 %198, ptr %28, align 4
  br label %202

199:                                              ; preds = %171
  %200 = load i32, ptr %29, align 4
  %201 = call i32 asm "bswapl $0", "=r,0,~{dirflag},~{fpsr},~{flags}"(i32 %200) #14, !srcloc !24
  store i32 %201, ptr %28, align 4
  br label %202

202:                                              ; preds = %199, %183
  %203 = load i32, ptr %28, align 4
  store i32 %203, ptr %30, align 4
  call void @llvm.lifetime.end.p0(i64 4, ptr %29) #12
  call void @llvm.lifetime.end.p0(i64 4, ptr %28) #12
  %204 = load i32, ptr %30, align 4
  %205 = getelementptr inbounds nuw %struct.snooprec_hdr, ptr %13, i32 0, i32 4
  store i32 %204, ptr %205, align 4
  call void @llvm.lifetime.start.p0(i64 4, ptr %31) #12
  call void @llvm.lifetime.start.p0(i64 4, ptr %32) #12
  %206 = load ptr, ptr %8, align 8
  %207 = getelementptr inbounds nuw %struct.wtap_rec, ptr %206, i32 0, i32 3
  %208 = getelementptr inbounds nuw %struct.nstime_t, ptr %207, i32 0, i32 1
  %209 = load i32, ptr %208, align 8
  %210 = sdiv i32 %209, 1000
  store i32 %210, ptr %32, align 4
  %211 = load i32, ptr %32, align 4
  %212 = call i1 @llvm.is.constant.i32(i32 %211)
  br i1 %212, label %213, label %229

213:                                              ; preds = %202
  %214 = load i32, ptr %32, align 4
  %215 = and i32 %214, 255
  %216 = shl i32 %215, 24
  %217 = load i32, ptr %32, align 4
  %218 = and i32 %217, 65280
  %219 = shl i32 %218, 8
  %220 = or i32 %216, %219
  %221 = load i32, ptr %32, align 4
  %222 = and i32 %221, 16711680
  %223 = lshr i32 %222, 8
  %224 = or i32 %220, %223
  %225 = load i32, ptr %32, align 4
  %226 = and i32 %225, -16777216
  %227 = lshr i32 %226, 24
  %228 = or i32 %224, %227
  store i32 %228, ptr %31, align 4
  br label %232

229:                                              ; preds = %202
  %230 = load i32, ptr %32, align 4
  %231 = call i32 asm "bswapl $0", "=r,0,~{dirflag},~{fpsr},~{flags}"(i32 %230) #14, !srcloc !25
  store i32 %231, ptr %31, align 4
  br label %232

232:                                              ; preds = %229, %213
  %233 = load i32, ptr %31, align 4
  store i32 %233, ptr %33, align 4
  call void @llvm.lifetime.end.p0(i64 4, ptr %32) #12
  call void @llvm.lifetime.end.p0(i64 4, ptr %31) #12
  %234 = load i32, ptr %33, align 4
  %235 = getelementptr inbounds nuw %struct.snooprec_hdr, ptr %13, i32 0, i32 5
  store i32 %234, ptr %235, align 4
  %236 = load ptr, ptr %7, align 8
  %237 = load ptr, ptr %10, align 8
  %238 = call zeroext i1 @wtap_dump_file_write(ptr noundef %236, ptr noundef %13, i64 noundef 24, ptr noundef %237)
  br i1 %238, label %240, label %239

239:                                              ; preds = %232
  store i1 false, ptr %6, align 1
  store i32 1, ptr %18, align 4
  br label %335

240:                                              ; preds = %232
  %241 = load ptr, ptr %7, align 8
  %242 = getelementptr inbounds nuw %struct.wtap_dumper, ptr %241, i32 0, i32 3
  %243 = load i32, ptr %242, align 8
  %244 = icmp eq i32 %243, 13
  br i1 %244, label %245, label %316

245:                                              ; preds = %240
  %246 = load ptr, ptr %12, align 8
  %247 = getelementptr inbounds nuw %struct.atm_phdr, ptr %246, i32 0, i32 7
  %248 = load i16, ptr %247, align 2
  %249 = zext i16 %248 to i32
  %250 = icmp eq i32 %249, 0
  %251 = select i1 %250, i32 128, i32 0
  %252 = trunc i32 %251 to i8
  %253 = getelementptr inbounds nuw %struct.snoop_atm_hdr, ptr %16, i32 0, i32 0
  store i8 %252, ptr %253, align 2
  %254 = load ptr, ptr %12, align 8
  %255 = getelementptr inbounds nuw %struct.atm_phdr, ptr %254, i32 0, i32 1
  %256 = load i8, ptr %255, align 4
  %257 = zext i8 %256 to i32
  switch i32 %257, label %288 [
    i32 6, label %258
    i32 4, label %264
  ]

258:                                              ; preds = %245
  %259 = getelementptr inbounds nuw %struct.snoop_atm_hdr, ptr %16, i32 0, i32 0
  %260 = load i8, ptr %259, align 2
  %261 = zext i8 %260 to i32
  %262 = or i32 %261, 6
  %263 = trunc i32 %262 to i8
  store i8 %263, ptr %259, align 2
  br label %288

264:                                              ; preds = %245
  %265 = load ptr, ptr %12, align 8
  %266 = getelementptr inbounds nuw %struct.atm_phdr, ptr %265, i32 0, i32 2
  %267 = load i8, ptr %266, align 1
  %268 = zext i8 %267 to i32
  switch i32 %268, label %287 [
    i32 3, label %269
    i32 1, label %275
    i32 4, label %281
  ]

269:                                              ; preds = %264
  %270 = getelementptr inbounds nuw %struct.snoop_atm_hdr, ptr %16, i32 0, i32 0
  %271 = load i8, ptr %270, align 2
  %272 = zext i8 %271 to i32
  %273 = or i32 %272, 1
  %274 = trunc i32 %273 to i8
  store i8 %274, ptr %270, align 2
  br label %287

275:                                              ; preds = %264
  %276 = getelementptr inbounds nuw %struct.snoop_atm_hdr, ptr %16, i32 0, i32 0
  %277 = load i8, ptr %276, align 2
  %278 = zext i8 %277 to i32
  %279 = or i32 %278, 2
  %280 = trunc i32 %279 to i8
  store i8 %280, ptr %276, align 2
  br label %287

281:                                              ; preds = %264
  %282 = getelementptr inbounds nuw %struct.snoop_atm_hdr, ptr %16, i32 0, i32 0
  %283 = load i8, ptr %282, align 2
  %284 = zext i8 %283 to i32
  %285 = or i32 %284, 5
  %286 = trunc i32 %285 to i8
  store i8 %286, ptr %282, align 2
  br label %287

287:                                              ; preds = %264, %281, %275, %269
  br label %288

288:                                              ; preds = %245, %287, %258
  %289 = load ptr, ptr %12, align 8
  %290 = getelementptr inbounds nuw %struct.atm_phdr, ptr %289, i32 0, i32 4
  %291 = load i16, ptr %290, align 8
  %292 = trunc i16 %291 to i8
  %293 = getelementptr inbounds nuw %struct.snoop_atm_hdr, ptr %16, i32 0, i32 1
  store i8 %292, ptr %293, align 1
  %294 = load ptr, ptr %12, align 8
  %295 = getelementptr inbounds nuw %struct.atm_phdr, ptr %294, i32 0, i32 5
  %296 = load i16, ptr %295, align 2
  %297 = zext i16 %296 to i32
  %298 = ashr i32 %297, 8
  %299 = trunc i32 %298 to i16
  %300 = zext i16 %299 to i32
  %301 = load ptr, ptr %12, align 8
  %302 = getelementptr inbounds nuw %struct.atm_phdr, ptr %301, i32 0, i32 5
  %303 = load i16, ptr %302, align 2
  %304 = zext i16 %303 to i32
  %305 = shl i32 %304, 8
  %306 = trunc i32 %305 to i16
  %307 = zext i16 %306 to i32
  %308 = or i32 %300, %307
  %309 = trunc i32 %308 to i16
  %310 = getelementptr inbounds nuw %struct.snoop_atm_hdr, ptr %16, i32 0, i32 2
  store i16 %309, ptr %310, align 2
  %311 = load ptr, ptr %7, align 8
  %312 = load ptr, ptr %10, align 8
  %313 = call zeroext i1 @wtap_dump_file_write(ptr noundef %311, ptr noundef %16, i64 noundef 4, ptr noundef %312)
  br i1 %313, label %315, label %314

314:                                              ; preds = %288
  store i1 false, ptr %6, align 1
  store i32 1, ptr %18, align 4
  br label %335

315:                                              ; preds = %288
  br label %316

316:                                              ; preds = %315, %240
  %317 = load ptr, ptr %7, align 8
  %318 = load ptr, ptr %9, align 8
  %319 = load ptr, ptr %8, align 8
  %320 = getelementptr inbounds nuw %struct.wtap_rec, ptr %319, i32 0, i32 7
  %321 = getelementptr inbounds nuw %struct.wtap_packet_header, ptr %320, i32 0, i32 0
  %322 = load i32, ptr %321, align 8
  %323 = zext i32 %322 to i64
  %324 = load ptr, ptr %10, align 8
  %325 = call zeroext i1 @wtap_dump_file_write(ptr noundef %317, ptr noundef %318, i64 noundef %323, ptr noundef %324)
  br i1 %325, label %327, label %326

326:                                              ; preds = %316
  store i1 false, ptr %6, align 1
  store i32 1, ptr %18, align 4
  br label %335

327:                                              ; preds = %316
  %328 = load ptr, ptr %7, align 8
  %329 = load i32, ptr %15, align 4
  %330 = zext i32 %329 to i64
  %331 = load ptr, ptr %10, align 8
  %332 = call zeroext i1 @wtap_dump_file_write(ptr noundef %328, ptr noundef @snoop_dump.zeroes, i64 noundef %330, ptr noundef %331)
  br i1 %332, label %334, label %333

333:                                              ; preds = %327
  store i1 false, ptr %6, align 1
  store i32 1, ptr %18, align 4
  br label %335

334:                                              ; preds = %327
  store i1 true, ptr %6, align 1
  store i32 1, ptr %18, align 4
  br label %335

335:                                              ; preds = %334, %333, %326, %314, %239, %84, %52, %41
  call void @llvm.lifetime.end.p0(i64 4, ptr %17) #12
  call void @llvm.lifetime.end.p0(i64 4, ptr %16) #12
  call void @llvm.lifetime.end.p0(i64 4, ptr %15) #12
  call void @llvm.lifetime.end.p0(i64 4, ptr %14) #12
  call void @llvm.lifetime.end.p0(i64 24, ptr %13) #12
  call void @llvm.lifetime.end.p0(i64 8, ptr %12) #12
  %336 = load i1, ptr %6, align 1
  ret i1 %336
}