; Function Attrs: null_pointer_is_valid sspstrong uwtable
define internal zeroext i1 @snoop_dump(ptr noundef %0, ptr noundef readonly captures(none) %1, ptr noundef %2, ptr noundef %3, ptr readnone captures(none) %4) #0 {
  %6 = alloca %struct.snooprec_hdr, align 4
  %7 = alloca %struct.snoop_atm_hdr, align 2
  %8 = getelementptr inbounds nuw i8, ptr %1, i64 64
  call void @llvm.lifetime.start.p0(i64 24, ptr nonnull %6) #8
  call void @llvm.lifetime.start.p0(i64 4, ptr nonnull %7) #8
  %9 = load i32, ptr %1, align 8
  %.not = icmp eq i32 %9, 0
  br i1 %.not, label %11, label %10

10:                                               ; preds = %5
  store i32 -24, ptr %3, align 4
  br label %80

11:                                               ; preds = %5
  %12 = getelementptr inbounds nuw i8, ptr %0, i64 16
  %13 = load i32, ptr %12, align 8
  %14 = getelementptr inbounds nuw i8, ptr %1, i64 72
  %15 = load i32, ptr %14, align 8
  %.not88 = icmp eq i32 %13, %15
  br i1 %.not88, label %17, label %16

16:                                               ; preds = %11
  store i32 -9, ptr %3, align 4
  br label %80

17:                                               ; preds = %11
  %18 = icmp eq i32 %13, 13
  %. = select i1 %18, i32 4, i32 0
  %19 = load i32, ptr %8, align 8
  %20 = add i32 %19, %.
  %21 = add i32 %20, 24
  %22 = add i32 %20, 27
  %23 = and i32 %22, -4
  %24 = sub i32 %23, %21
  %25 = icmp ugt i32 %20, 262144
  br i1 %25, label %26, label %27

26:                                               ; preds = %17
  store i32 -22, ptr %3, align 4
  br label %80

27:                                               ; preds = %17
  %28 = getelementptr inbounds nuw i8, ptr %1, i64 68
  %29 = load i32, ptr %28, align 4
  %30 = add i32 %29, %.
  %31 = tail call i32 asm "bswapl $0", "=r,0,~{dirflag},~{fpsr},~{flags}"(i32 %30) #9, !srcloc !20
  store i32 %31, ptr %6, align 4
  %32 = tail call i32 asm "bswapl $0", "=r,0,~{dirflag},~{fpsr},~{flags}"(i32 %20) #9, !srcloc !21
  %33 = getelementptr inbounds nuw i8, ptr %6, i64 4
  store i32 %32, ptr %33, align 4
  %34 = tail call i32 asm "bswapl $0", "=r,0,~{dirflag},~{fpsr},~{flags}"(i32 %23) #9, !srcloc !22
  %35 = getelementptr inbounds nuw i8, ptr %6, i64 8
  store i32 %34, ptr %35, align 4
  %36 = getelementptr inbounds nuw i8, ptr %6, i64 12
  store i32 0, ptr %36, align 4
  %37 = getelementptr inbounds nuw i8, ptr %1, i64 16
  %38 = load i64, ptr %37, align 8
  %39 = trunc i64 %38 to i32
  %40 = tail call i32 asm "bswapl $0", "=r,0,~{dirflag},~{fpsr},~{flags}"(i32 %39) #9, !srcloc !23
  %41 = getelementptr inbounds nuw i8, ptr %6, i64 16
  store i32 %40, ptr %41, align 4
  %42 = getelementptr inbounds nuw i8, ptr %1, i64 24
  %43 = load i32, ptr %42, align 8
  %44 = sdiv i32 %43, 1000
  %45 = tail call i32 asm "bswapl $0", "=r,0,~{dirflag},~{fpsr},~{flags}"(i32 %44) #9, !srcloc !24
  %46 = getelementptr inbounds nuw i8, ptr %6, i64 20
  store i32 %45, ptr %46, align 4
  %47 = call zeroext i1 @wtap_dump_file_write(ptr noundef %0, ptr noundef nonnull %6, i64 noundef 24, ptr noundef %3)
  br i1 %47, label %48, label %80

48:                                               ; preds = %27
  %49 = load i32, ptr %12, align 8
  %50 = icmp eq i32 %49, 13
  br i1 %50, label %51, label %73

51:                                               ; preds = %48
  %52 = getelementptr inbounds nuw i8, ptr %1, i64 94
  %53 = load i16, ptr %52, align 2
  %54 = icmp eq i16 %53, 0
  %55 = select i1 %54, i8 -128, i8 0
  store i8 %55, ptr %7, align 2
  %56 = getelementptr inbounds nuw i8, ptr %1, i64 84
  %57 = load i8, ptr %56, align 4
  switch i8 %57, label %64 [
    i8 6, label %.sink.split
    i8 4, label %58
  ]

58:                                               ; preds = %51
  %59 = getelementptr inbounds nuw i8, ptr %1, i64 85
  %60 = load i8, ptr %59, align 1
  switch i8 %60, label %64 [
    i8 3, label %.sink.split
    i8 1, label %61
    i8 4, label %62
  ]

61:                                               ; preds = %58
  br label %.sink.split

62:                                               ; preds = %58
  br label %.sink.split

.sink.split:                                      ; preds = %58, %51, %62, %61
  %.sink91 = phi i8 [ 2, %61 ], [ 5, %62 ], [ %57, %51 ], [ 1, %58 ]
  %63 = or disjoint i8 %55, %.sink91
  store i8 %63, ptr %7, align 2
  br label %64

64:                                               ; preds = %.sink.split, %58, %51
  %65 = getelementptr inbounds nuw i8, ptr %1, i64 88
  %66 = load i16, ptr %65, align 8
  %67 = trunc i16 %66 to i8
  %68 = getelementptr inbounds nuw i8, ptr %7, i64 1
  store i8 %67, ptr %68, align 1
  %69 = getelementptr inbounds nuw i8, ptr %1, i64 90
  %70 = load i16, ptr %69, align 2
  %rev = call i16 @llvm.bswap.i16(i16 %70)
  %71 = getelementptr inbounds nuw i8, ptr %7, i64 2
  store i16 %rev, ptr %71, align 2
  %72 = call zeroext i1 @wtap_dump_file_write(ptr noundef %0, ptr noundef nonnull %7, i64 noundef 4, ptr noundef %3)
  br i1 %72, label %73, label %80

73:                                               ; preds = %64, %48
  %74 = load i32, ptr %8, align 8
  %75 = zext i32 %74 to i64
  %76 = call zeroext i1 @wtap_dump_file_write(ptr noundef %0, ptr noundef %2, i64 noundef %75, ptr noundef %3)
  br i1 %76, label %77, label %80

77:                                               ; preds = %73
  %78 = zext i32 %24 to i64
  %79 = call zeroext i1 @wtap_dump_file_write(ptr noundef %0, ptr noundef nonnull @snoop_dump.zeroes, i64 noundef %78, ptr noundef %3)
  br label %80

80:                                               ; preds = %77, %73, %64, %27, %26, %16, %10
  %.0 = phi i1 [ false, %10 ], [ false, %16 ], [ false, %26 ], [ false, %27 ], [ false, %64 ], [ false, %73 ], [ %79, %77 ]
  call void @llvm.lifetime.end.p0(i64 4, ptr nonnull %7) #8
  call void @llvm.lifetime.end.p0(i64 24, ptr nonnull %6) #8
  ret i1 %.0
}